; Function Attrs: mustprogress nounwind uwtable
define hidden void @_ZN13VirtualMemory11update_peakEm(ptr noundef nonnull align 8 dereferenceable(24) %0, i64 noundef %1) local_unnamed_addr #0 align 2 {
  %3 = getelementptr inbounds i8, ptr %0, i64 16
  %4 = load volatile i64, ptr %3, align 8
  br label %5

5:                                                ; preds = %7, %2
  %.0 = phi i64 [ %4, %2 ], [ %8, %7 ]
  %6 = icmp ult i64 %.0, %1
  br i1 %6, label %7, label %10

7:                                                ; preds = %5
  %8 = tail call noundef i64 asm sideeffect "lock cmpxchgq $1,($3)", "={ax},r,{ax},r,~{cc},~{memory},~{dirflag},~{fpsr},~{flags}"(i64 %1, i64 %.0, ptr nonnull %3) #14, !srcloc !6
  %9 = icmp eq i64 %8, %.0
  br i1 %9, label %10, label %5, !llvm.loop !7

10:                                               ; preds = %7, %5
  ret void
}